(dp0
S'users'
p1
(dp2
S'test1'
p3
(dp4
S'sups'
p5
(lp6
sS'user_id'
p7
g3
sS'friends_list'
p8
(lp9
sS'full_name'
p10
S'Test One'
p11
ssS'kbplatt'
p12
(dp13
S'sups'
p14
(lp15
sS'user_id'
p16
g12
sS'full_name'
p17
S'Kyle Platt'
p18
sS'friends_list'
p19
(lp20
S'test3'
p21
aS'test4'
p22
aS'test5'
p23
aS'test6'
p24
aS'test7'
p25
aS'test8'
p26
aS'kbplatt'
p27
asss.